; Function Attrs: mustprogress nofree nounwind uwtable
define noundef i64 @_ZNK8tinyxml210XMLElement14Int64AttributeEPKcl(ptr noundef nonnull readonly align 8 captures(none) dereferenceable(120) %0, ptr noundef readonly captures(address) %1, i64 noundef %2) local_unnamed_addr #14 align 2 {
  %4 = alloca i64, align 8
  %5 = alloca i64, align 8
  %6 = getelementptr inbounds nuw i8, ptr %0, i64 112
  %.0710.i.i = load ptr, ptr %6, align 8, !tbaa !103
  %.not11.i.i = icmp eq ptr %.0710.i.i, null
  br i1 %.not11.i.i, label %_ZNK8tinyxml210XMLElement19QueryInt64AttributeEPKcPl.exit, label %.lr.ph.i.i

.lr.ph.i.i:                                       ; preds = %3, %12
  %.0712.i.i = phi ptr [ %.07.i.i, %12 ], [ %.0710.i.i, %3 ]
  %7 = getelementptr inbounds nuw i8, ptr %.0712.i.i, i64 8
  %8 = tail call noundef ptr @_ZN8tinyxml27StrPair6GetStrEv(ptr noundef nonnull align 8 dereferenceable(24) %7)
  %9 = icmp eq ptr %8, %1
  br i1 %9, label %_ZNK8tinyxml210XMLElement13FindAttributeEPKc.exit.i, label %_ZN8tinyxml27XMLUtil11StringEqualEPKcS2_i.exit.i.i

_ZN8tinyxml27XMLUtil11StringEqualEPKcS2_i.exit.i.i: ; preds = %.lr.ph.i.i
  %10 = tail call i32 @strncmp(ptr noundef nonnull dereferenceable(1) %8, ptr noundef nonnull readonly dereferenceable(1) %1, i64 noundef 2147483647) #33
  %11 = icmp eq i32 %10, 0
  br i1 %11, label %_ZNK8tinyxml210XMLElement13FindAttributeEPKc.exit.i, label %12

12:                                               ; preds = %_ZN8tinyxml27XMLUtil11StringEqualEPKcS2_i.exit.i.i
  %13 = getelementptr inbounds nuw i8, ptr %.0712.i.i, i64 64
  %.07.i.i = load ptr, ptr %13, align 8, !tbaa !103
  %.not.i.i = icmp eq ptr %.07.i.i, null
  br i1 %.not.i.i, label %_ZNK8tinyxml210XMLElement19QueryInt64AttributeEPKcPl.exit, label %.lr.ph.i.i, !llvm.loop !104

_ZNK8tinyxml210XMLElement13FindAttributeEPKc.exit.i: ; preds = %_ZN8tinyxml27XMLUtil11StringEqualEPKcS2_i.exit.i.i, %.lr.ph.i.i
  %14 = getelementptr inbounds nuw i8, ptr %.0712.i.i, i64 32
  %15 = tail call noundef ptr @_ZN8tinyxml27StrPair6GetStrEv(ptr noundef nonnull align 8 dereferenceable(24) %14)
  %16 = load i8, ptr %15, align 1, !tbaa !12
  %17 = icmp slt i8 %16, 0
  br i1 %17, label %_ZN8tinyxml27XMLUtil11IsPrefixHexEPKc.exit.thread.i.i, label %_ZN8tinyxml27XMLUtil12IsWhiteSpaceEc.exit.us.i.i.i.i

_ZN8tinyxml27XMLUtil12IsWhiteSpaceEc.exit.us.i.i.i.i: ; preds = %_ZNK8tinyxml210XMLElement13FindAttributeEPKc.exit.i, %20
  %.pr.i.i.i = phi i8 [ %22, %20 ], [ %16, %_ZNK8tinyxml210XMLElement13FindAttributeEPKc.exit.i ]
  %.08.us.i.i.i.i = phi ptr [ %21, %20 ], [ %15, %_ZNK8tinyxml210XMLElement13FindAttributeEPKc.exit.i ]
  %18 = zext nneg i8 %.pr.i.i.i to i32
  %19 = tail call i32 @isspace(i32 noundef %18) #33
  %.not7.us.i.i.i.i = icmp eq i32 %19, 0
  br i1 %.not7.us.i.i.i.i, label %_ZN8tinyxml27XMLUtil14SkipWhiteSpaceEPKcPi.exit.i.i.i, label %20

20:                                               ; preds = %_ZN8tinyxml27XMLUtil12IsWhiteSpaceEc.exit.us.i.i.i.i
  %21 = getelementptr inbounds nuw i8, ptr %.08.us.i.i.i.i, i64 1
  %22 = load i8, ptr %21, align 1, !tbaa !12
  %23 = icmp slt i8 %22, 0
  br i1 %23, label %_ZN8tinyxml27XMLUtil11IsPrefixHexEPKc.exit.thread.i.i, label %_ZN8tinyxml27XMLUtil12IsWhiteSpaceEc.exit.us.i.i.i.i, !llvm.loop !17

_ZN8tinyxml27XMLUtil14SkipWhiteSpaceEPKcPi.exit.i.i.i: ; preds = %_ZN8tinyxml27XMLUtil12IsWhiteSpaceEc.exit.us.i.i.i.i
  %24 = icmp eq i8 %.pr.i.i.i, 48
  br i1 %24, label %_ZN8tinyxml27XMLUtil11IsPrefixHexEPKc.exit.i.i, label %_ZN8tinyxml27XMLUtil11IsPrefixHexEPKc.exit.thread.i.i

_ZN8tinyxml27XMLUtil11IsPrefixHexEPKc.exit.i.i:   ; preds = %_ZN8tinyxml27XMLUtil14SkipWhiteSpaceEPKcPi.exit.i.i.i
  %25 = getelementptr inbounds nuw i8, ptr %.08.us.i.i.i.i, i64 1
  %26 = load i8, ptr %25, align 1, !tbaa !12
  %27 = and i8 %26, -33
  %spec.select.i.i.i = icmp eq i8 %27, 88
  br i1 %spec.select.i.i.i, label %28, label %_ZN8tinyxml27XMLUtil11IsPrefixHexEPKc.exit.thread.i.i

28:                                               ; preds = %_ZN8tinyxml27XMLUtil11IsPrefixHexEPKc.exit.i.i
  call void @llvm.lifetime.start.p0(i64 8, ptr nonnull %4) #31
  store i64 0, ptr %4, align 8, !tbaa !34
  %29 = call i32 (ptr, ptr, ...) @__isoc99_sscanf(ptr noundef nonnull readonly %15, ptr noundef nonnull @.str.16, ptr noundef nonnull %4) #31
  %30 = icmp eq i32 %29, 1
  br i1 %30, label %31, label %.thread.i.i

.thread.i.i:                                      ; preds = %28
  call void @llvm.lifetime.end.p0(i64 8, ptr nonnull %4) #31
  br label %_ZNK8tinyxml210XMLElement19QueryInt64AttributeEPKcPl.exit

31:                                               ; preds = %28
  %32 = load i64, ptr %4, align 8, !tbaa !34
  call void @llvm.lifetime.end.p0(i64 8, ptr nonnull %4) #31
  br label %_ZNK8tinyxml210XMLElement19QueryInt64AttributeEPKcPl.exit

_ZN8tinyxml27XMLUtil11IsPrefixHexEPKc.exit.thread.i.i: ; preds = %20, %_ZN8tinyxml27XMLUtil11IsPrefixHexEPKc.exit.i.i, %_ZN8tinyxml27XMLUtil14SkipWhiteSpaceEPKcPi.exit.i.i.i, %_ZNK8tinyxml210XMLElement13FindAttributeEPKc.exit.i
  call void @llvm.lifetime.start.p0(i64 8, ptr nonnull %5) #31
  store i64 0, ptr %5, align 8, !tbaa !34
  %33 = call i32 (ptr, ptr, ...) @__isoc99_sscanf(ptr noundef nonnull readonly %15, ptr noundef nonnull @.str.7, ptr noundef nonnull %5) #31
  %34 = icmp eq i32 %33, 1
  br i1 %34, label %35, label %.thread12.i.i

.thread12.i.i:                                    ; preds = %_ZN8tinyxml27XMLUtil11IsPrefixHexEPKc.exit.thread.i.i
  call void @llvm.lifetime.end.p0(i64 8, ptr nonnull %5) #31
  br label %_ZNK8tinyxml210XMLElement19QueryInt64AttributeEPKcPl.exit

35:                                               ; preds = %_ZN8tinyxml27XMLUtil11IsPrefixHexEPKc.exit.thread.i.i
  %36 = load i64, ptr %5, align 8, !tbaa !34
  call void @llvm.lifetime.end.p0(i64 8, ptr nonnull %5) #31
  br label %_ZNK8tinyxml210XMLElement19QueryInt64AttributeEPKcPl.exit

_ZNK8tinyxml210XMLElement19QueryInt64AttributeEPKcPl.exit: ; preds = %12, %35, %.thread12.i.i, %31, %.thread.i.i, %3
  %.0 = phi i64 [ %2, %3 ], [ %36, %35 ], [ %2, %.thread12.i.i ], [ %32, %31 ], [ %2, %.thread.i.i ], [ %2, %12 ]
  ret i64 %.0
}